target datalayout = "e-m:e-p270:32:32-p271:32:32-p272:64:64-i64:64-i128:128-f80:128-n8:16:32:64-S128"
target triple = "x86_64-pc-linux-gnu"

%class.TypedMethodOptionMatcher = type { %class.MethodMatcher, ptr, i32, %union.anon }
%class.MethodMatcher = type { ptr, ptr, ptr, i32, i32 }
%union.anon = type { i64 }

@_ZN24TypedMethodOptionMatcherD1Ev = hidden unnamed_addr alias void (ptr), ptr @_ZN24TypedMethodOptionMatcherD2Ev

; Function Attrs: mustprogress nounwind uwtable
define linkonce_odr hidden void @_ZN12CHeapObjBasedlEPv(ptr noundef %0) #1 comdat align 2 {
  %2 = alloca ptr, align 8
  store ptr %0, ptr %2, align 8
  %3 = load ptr, ptr %2, align 8
  call void @_Z8FreeHeapPv(ptr noundef %3)
  ret void
}

; Function Attrs: mustprogress nounwind uwtable
define linkonce_odr hidden void @_ZN8CHeapObjIL8MEMFLAGS7EEdlEPv(ptr noundef %0) #1 comdat align 2 {
  %2 = alloca ptr, align 8
  store ptr %0, ptr %2, align 8
  %3 = load ptr, ptr %2, align 8
  call void @_ZN12CHeapObjBasedlEPv(ptr noundef %3) #11
  ret void
}

; Function Attrs: mustprogress nounwind uwtable
define linkonce_odr hidden void @_ZN24TypedMethodOptionMatcherC2Ev(ptr noundef nonnull align 8 dereferenceable(56) %0) unnamed_addr #1 comdat align 2 {
  %2 = alloca ptr, align 8
  store ptr %0, ptr %2, align 8
  %3 = load ptr, ptr %2, align 8
  call void @_ZN13MethodMatcherC2Ev(ptr noundef nonnull align 8 dereferenceable(32) %3)
  %4 = getelementptr inbounds %class.TypedMethodOptionMatcher, ptr %3, i32 0, i32 1
  store ptr null, ptr %4, align 8
  %5 = getelementptr inbounds %class.TypedMethodOptionMatcher, ptr %3, i32 0, i32 2
  store i32 40, ptr %5, align 8
  %6 = getelementptr inbounds %class.TypedMethodOptionMatcher, ptr %3, i32 0, i32 3
  call void @llvm.memset.p0.i64(ptr align 8 %6, i8 0, i64 8, i1 false)
  ret void
}

; Function Attrs: mustprogress nounwind uwtable
define hidden noundef ptr @_ZN24TypedMethodOptionMatcher20parse_method_patternERPcS0_i(ptr noundef nonnull align 8 dereferenceable(8) %0, ptr noundef %1, i32 noundef %2) #1 align 2 {
  %4 = alloca i64, align 8
  %5 = alloca i8, align 1
  %6 = alloca i64, align 8
  %7 = alloca ptr, align 8
  %8 = alloca ptr, align 8
  %9 = alloca ptr, align 8
  %10 = alloca i32, align 4
  %11 = alloca ptr, align 8
  %12 = alloca ptr, align 8
  store ptr %0, ptr %8, align 8
  store ptr %1, ptr %9, align 8
  store i32 %2, ptr %10, align 4
  store ptr null, ptr %11, align 8
  store i64 56, ptr %6, align 8
  %13 = load i64, ptr %6, align 8
  store i64 %13, ptr %4, align 8
  store i8 7, ptr %5, align 1
  %14 = load i64, ptr %4, align 8
  %15 = load i8, ptr %5, align 1
  %16 = call noundef ptr @_Z12AllocateHeapm8MEMFLAGSN17AllocFailStrategy13AllocFailEnumE(i64 noundef %14, i8 noundef zeroext %15, i32 noundef 0) #11
  call void @_ZN24TypedMethodOptionMatcherC2Ev(ptr noundef nonnull align 8 dereferenceable(56) %16)
  store ptr %16, ptr %12, align 8
  %17 = load ptr, ptr %8, align 8
  %18 = load ptr, ptr %12, align 8
  call void @_ZN13MethodMatcher20parse_method_patternERPcRPKcPS_(ptr noundef nonnull align 8 dereferenceable(8) %17, ptr noundef nonnull align 8 dereferenceable(8) %11, ptr noundef %18)
  %19 = load ptr, ptr %11, align 8
  %20 = icmp ne ptr %19, null
  br i1 %20, label %21, label %31

21:                                               ; preds = %3
  %22 = load ptr, ptr %9, align 8
  %23 = load i32, ptr %10, align 4
  %24 = sext i32 %23 to i64
  %25 = load ptr, ptr %11, align 8
  %26 = call i32 (ptr, i64, ptr, ...) @jio_snprintf(ptr noundef %22, i64 noundef %24, ptr noundef %25)
  %27 = load ptr, ptr %12, align 8
  %28 = icmp eq ptr %27, null
  br i1 %28, label %30, label %29

29:                                               ; preds = %21
  call void @_ZN24TypedMethodOptionMatcherD1Ev(ptr noundef nonnull align 8 dereferenceable(56) %27) #11
  call void @_ZN8CHeapObjIL8MEMFLAGS7EEdlEPv(ptr noundef %27) #11
  br label %30

30:                                               ; preds = %29, %21
  store ptr null, ptr %7, align 8
  br label %33

31:                                               ; preds = %3
  %32 = load ptr, ptr %12, align 8
  store ptr %32, ptr %7, align 8
  br label %33

33:                                               ; preds = %31, %30
  %34 = load ptr, ptr %7, align 8
  ret ptr %34
}