; Function Attrs: mustprogress nounwind uwtable
define hidden noundef ptr @_ZN24TypedMethodOptionMatcher20parse_method_patternERPcS0_i(ptr noundef nonnull align 8 dereferenceable(8) %0, ptr noundef %1, i32 noundef %2) local_unnamed_addr #2 align 2 {
  %4 = alloca ptr, align 8
  store ptr null, ptr %4, align 8
  %5 = tail call noundef ptr @_Z12AllocateHeapm8MEMFLAGSN17AllocFailStrategy13AllocFailEnumE(i64 noundef 56, i8 noundef zeroext 7, i32 noundef 0) #19
  tail call void @_ZN13MethodMatcherC2Ev(ptr noundef nonnull align 8 dereferenceable(32) %5) #19
  %6 = getelementptr inbounds i8, ptr %5, i64 32
  store ptr null, ptr %6, align 8
  %7 = getelementptr inbounds i8, ptr %5, i64 40
  store i32 40, ptr %7, align 8
  %8 = getelementptr inbounds i8, ptr %5, i64 48
  store i64 0, ptr %8, align 8
  call void @_ZN13MethodMatcher20parse_method_patternERPcRPKcPS_(ptr noundef nonnull align 8 dereferenceable(8) %0, ptr noundef nonnull align 8 dereferenceable(8) %4, ptr noundef nonnull %5) #19
  %9 = load ptr, ptr %4, align 8
  %.not = icmp eq ptr %9, null
  br i1 %.not, label %20, label %10

10:                                               ; preds = %3
  %11 = sext i32 %2 to i64
  %12 = call i32 (ptr, i64, ptr, ...) @jio_snprintf(ptr noundef %1, i64 noundef %11, ptr noundef nonnull %9) #19
  %13 = load i32, ptr %7, align 8
  %14 = sext i32 %13 to i64
  %15 = getelementptr inbounds [41 x i32], ptr @_ZL12option_types, i64 0, i64 %14
  %16 = load i32, ptr %15, align 4
  %17 = add i32 %16, -3
  %or.cond.i = icmp ult i32 %17, 2
  br i1 %or.cond.i, label %18, label %_ZN24TypedMethodOptionMatcherD2Ev.exit

18:                                               ; preds = %10
  %19 = load ptr, ptr %8, align 8
  call void @_ZN2os4freeEPv(ptr noundef %19) #19
  br label %_ZN24TypedMethodOptionMatcherD2Ev.exit

_ZN24TypedMethodOptionMatcherD2Ev.exit:           ; preds = %10, %18
  call void @_ZN13MethodMatcherD2Ev(ptr noundef nonnull align 8 dereferenceable(32) %5) #19
  call void @_Z8FreeHeapPv(ptr noundef nonnull %5) #19
  br label %20

20:                                               ; preds = %3, %_ZN24TypedMethodOptionMatcherD2Ev.exit
  %.0 = phi ptr [ null, %_ZN24TypedMethodOptionMatcherD2Ev.exit ], [ %5, %3 ]
  ret ptr %.0
}